target datalayout = "e-m:e-p270:32:32-p271:32:32-p272:64:64-i64:64-i128:128-f80:128-n8:16:32:64-S128"
target triple = "x86_64-unknown-linux-gnu"

%"class.icu_75::RuleBasedBreakIterator" = type <{ %"class.icu_75::BreakIterator.base", i8, %struct.UText, ptr, i32, i32, i32, [4 x i8], ptr, ptr, ptr, ptr, i32, [4 x i8], ptr, %"class.icu_75::UCharCharacterIterator", i8, [7 x i8], ptr, i8, [7 x i8] }>
%"class.icu_75::BreakIterator.base" = type <{ %"class.icu_75::UObject", [157 x i8], [157 x i8], [157 x i8] }>
%"class.icu_75::UObject" = type { ptr }
%struct.UText = type { i32, i32, i32, i32, i64, i32, i32, i64, i32, i32, ptr, ptr, ptr, ptr, ptr, ptr, ptr, ptr, i64, i32, i32, i64, i32, i32 }
%"class.icu_75::UCharCharacterIterator" = type { %"class.icu_75::CharacterIterator", ptr }
%"class.icu_75::CharacterIterator" = type { %"class.icu_75::ForwardCharacterIterator", i32, i32, i32, i32 }
%"class.icu_75::ForwardCharacterIterator" = type { %"class.icu_75::UObject" }

; Function Attrs: mustprogress nounwind uwtable
define internal noundef signext i8 @_ZL9U_FAILURE10UErrorCode(i32 noundef %code) #0 {
entry:
  %code.addr = alloca i32, align 4
  store i32 %code, ptr %code.addr, align 4
  %0 = load i32, ptr %code.addr, align 4
  %cmp = icmp sgt i32 %0, 0
  %conv = zext i1 %cmp to i8
  ret i8 %conv
}

; Function Attrs: mustprogress uwtable
define noundef nonnull align 8 dereferenceable(745) ptr @_ZN6icu_7522RuleBasedBreakIterator16refreshInputTextEP5UTextR10UErrorCode(ptr noundef nonnull align 8 dereferenceable(745) %this, ptr noundef %input, ptr noundef nonnull align 4 dereferenceable(4) %status) unnamed_addr #1 align 2 {
entry:
  %retval = alloca ptr, align 8
  %this.addr = alloca ptr, align 8
  %input.addr = alloca ptr, align 8
  %status.addr = alloca ptr, align 8
  %pos = alloca i64, align 8
  store ptr %this, ptr %this.addr, align 8
  store ptr %input, ptr %input.addr, align 8
  store ptr %status, ptr %status.addr, align 8
  %this1 = load ptr, ptr %this.addr, align 8
  %0 = load ptr, ptr %status.addr, align 8
  %1 = load i32, ptr %0, align 4
  %call = call noundef signext i8 @_ZL9U_FAILURE10UErrorCode(i32 noundef %1)
  %tobool = icmp ne i8 %call, 0
  br i1 %tobool, label %if.then, label %if.end

if.then:                                          ; preds = %entry
  store ptr %this1, ptr %retval, align 8
  br label %return

if.end:                                           ; preds = %entry
  %2 = load ptr, ptr %input.addr, align 8
  %cmp = icmp eq ptr %2, null
  br i1 %cmp, label %if.then2, label %if.end3

if.then2:                                         ; preds = %if.end
  %3 = load ptr, ptr %status.addr, align 8
  store i32 1, ptr %3, align 4
  store ptr %this1, ptr %retval, align 8
  br label %return

if.end3:                                          ; preds = %if.end
  %fText = getelementptr inbounds %"class.icu_75::RuleBasedBreakIterator", ptr %this1, i32 0, i32 2
  %call4 = call i64 @utext_getNativeIndex_75(ptr noundef %fText)
  store i64 %call4, ptr %pos, align 8
  %fText5 = getelementptr inbounds %"class.icu_75::RuleBasedBreakIterator", ptr %this1, i32 0, i32 2
  %4 = load ptr, ptr %input.addr, align 8
  %5 = load ptr, ptr %status.addr, align 8
  %call6 = call ptr @utext_clone_75(ptr noundef %fText5, ptr noundef %4, i8 noundef signext 0, i8 noundef signext 1, ptr noundef %5)
  %6 = load ptr, ptr %status.addr, align 8
  %7 = load i32, ptr %6, align 4
  %call7 = call noundef signext i8 @_ZL9U_FAILURE10UErrorCode(i32 noundef %7)
  %tobool8 = icmp ne i8 %call7, 0
  br i1 %tobool8, label %if.then9, label %if.end10

if.then9:                                         ; preds = %if.end3
  store ptr %this1, ptr %retval, align 8
  br label %return

if.end10:                                         ; preds = %if.end3
  %fText11 = getelementptr inbounds %"class.icu_75::RuleBasedBreakIterator", ptr %this1, i32 0, i32 2
  %8 = load i64, ptr %pos, align 8
  call void @utext_setNativeIndex_75(ptr noundef %fText11, i64 noundef %8)
  %fText12 = getelementptr inbounds %"class.icu_75::RuleBasedBreakIterator", ptr %this1, i32 0, i32 2
  %call13 = call i64 @utext_getNativeIndex_75(ptr noundef %fText12)
  %9 = load i64, ptr %pos, align 8
  %cmp14 = icmp ne i64 %call13, %9
  br i1 %cmp14, label %if.then15, label %if.end16

if.then15:                                        ; preds = %if.end10
  %10 = load ptr, ptr %status.addr, align 8
  store i32 1, ptr %10, align 4
  br label %if.end16

if.end16:                                         ; preds = %if.then15, %if.end10
  store ptr %this1, ptr %retval, align 8
  br label %return

return:                                           ; preds = %if.end16, %if.then9, %if.then2, %if.then
  %11 = load ptr, ptr %retval, align 8
  ret ptr %11
}