; Function Attrs: mustprogress uwtable
define noundef nonnull align 8 dereferenceable(745) ptr @_ZN6icu_7522RuleBasedBreakIterator16refreshInputTextEP5UTextR10UErrorCode(ptr noundef nonnull returned align 8 dereferenceable(745) %this, ptr noundef %input, ptr noundef nonnull align 4 dereferenceable(4) %status) unnamed_addr #1 align 2 {
entry:
  %0 = load i32, ptr %status, align 4
  %cmp.i = icmp slt i32 %0, 1
  br i1 %cmp.i, label %if.end, label %return

if.end:                                           ; preds = %entry
  %cmp = icmp eq ptr %input, null
  br i1 %cmp, label %return.sink.split, label %if.end3

if.end3:                                          ; preds = %if.end
  %fText = getelementptr inbounds i8, ptr %this, i64 480
  %call4 = tail call i64 @utext_getNativeIndex_75(ptr noundef nonnull %fText)
  %call6 = tail call ptr @utext_clone_75(ptr noundef nonnull %fText, ptr noundef nonnull %input, i8 noundef signext 0, i8 noundef signext 1, ptr noundef nonnull %status)
  %1 = load i32, ptr %status, align 4
  %cmp.i7 = icmp slt i32 %1, 1
  br i1 %cmp.i7, label %if.end10, label %return

if.end10:                                         ; preds = %if.end3
  tail call void @utext_setNativeIndex_75(ptr noundef nonnull %fText, i64 noundef %call4)
  %call13 = tail call i64 @utext_getNativeIndex_75(ptr noundef nonnull %fText)
  %cmp14.not = icmp eq i64 %call13, %call4
  br i1 %cmp14.not, label %return, label %return.sink.split

return.sink.split:                                ; preds = %if.end10, %if.end
  store i32 1, ptr %status, align 4
  br label %return

return:                                           ; preds = %return.sink.split, %if.end10, %if.end3, %entry
  ret ptr %this
}